target datalayout = "e-m:e-p270:32:32-p271:32:32-p272:64:64-i64:64-i128:128-f80:128-n8:16:32:64-S128"
target triple = "x86_64-pc-linux-gnu"

; Function Attrs: nounwind uwtable
define internal i32 @dummy_encoding_list_parser(ptr noundef %0, i64 noundef %1, ptr noundef %2, ptr noundef %3, i1 noundef zeroext %4) #0 {
  %6 = alloca ptr, align 8
  %7 = alloca i64, align 8
  %8 = alloca ptr, align 8
  %9 = alloca ptr, align 8
  %10 = alloca i8, align 1
  store ptr %0, ptr %6, align 8
  store i64 %1, ptr %7, align 8
  store ptr %2, ptr %8, align 8
  store ptr %3, ptr %9, align 8
  %11 = zext i1 %4 to i8
  store i8 %11, ptr %10, align 1
  %12 = load i8, ptr %10, align 1
  %13 = trunc i8 %12 to i1
  br i1 %13, label %14, label %16

14:                                               ; preds = %5
  %15 = call noalias ptr @__zend_malloc(i64 noundef 0) #8
  br label %18

16:                                               ; preds = %5
  %17 = call noalias ptr @_emalloc_8()
  br label %18

18:                                               ; preds = %16, %14
  %19 = phi ptr [ %15, %14 ], [ %17, %16 ]
  %20 = load ptr, ptr %8, align 8
  store ptr %19, ptr %20, align 8
  %21 = load ptr, ptr %9, align 8
  store i64 0, ptr %21, align 8
  ret i32 0
}