; Function Attrs: nounwind uwtable
define internal noundef i32 @dummy_encoding_list_parser(ptr nocapture readnone %0, i64 %1, ptr nocapture noundef writeonly %2, ptr nocapture noundef writeonly %3, i1 noundef zeroext %4) #0 {
  br i1 %4, label %6, label %8

6:                                                ; preds = %5
  %7 = tail call noalias ptr @__zend_malloc(i64 noundef 0) #14
  br label %10

8:                                                ; preds = %5
  %9 = tail call noalias ptr @_emalloc_8() #12
  br label %10

10:                                               ; preds = %8, %6
  %11 = phi ptr [ %7, %6 ], [ %9, %8 ]
  store ptr %11, ptr %2, align 8
  store i64 0, ptr %3, align 8
  ret i32 0
}